target datalayout = "e-m:e-p270:32:32-p271:32:32-p272:64:64-i64:64-i128:128-f80:128-n8:16:32:64-S128"
target triple = "x86_64-pc-linux-gnu"

%class.JvmtiAgent = type <{ %class.TimeInstant, %class.TimeInterval, ptr, ptr, ptr, ptr, ptr, ptr, i8, i8, i8, i8, i8, i8, [2 x i8] }>
%class.TimeInstant = type { %class.CompositeCounterRepresentation }
%class.CompositeCounterRepresentation = type { %class.Representation }
%class.Representation = type { %class.PairRep }
%class.PairRep = type { i64, i64 }
%class.TimeInterval = type { %class.CompositeCounterRepresentation }

@.str = private unnamed_addr constant [11 x i8] c"instrument\00", align 1

; Function Attrs: mustprogress nounwind uwtable
define linkonce_odr hidden void @_ZN7PairRepIllEC2Ev(ptr noundef nonnull align 8 dereferenceable(16) %0) unnamed_addr #1 comdat align 2 {
  %2 = alloca ptr, align 8
  store ptr %0, ptr %2, align 8
  %3 = load ptr, ptr %2, align 8
  %4 = getelementptr inbounds %class.PairRep, ptr %3, i32 0, i32 0
  store i64 0, ptr %4, align 8
  %5 = getelementptr inbounds %class.PairRep, ptr %3, i32 0, i32 1
  store i64 0, ptr %5, align 8
  ret void
}

; Function Attrs: mustprogress nounwind uwtable
define linkonce_odr hidden void @_ZN14RepresentationI29CompositeElapsedCounterSourceEC2Ev(ptr noundef nonnull align 8 dereferenceable(16) %0) unnamed_addr #1 comdat align 2 {
  %2 = alloca ptr, align 8
  store ptr %0, ptr %2, align 8
  %3 = load ptr, ptr %2, align 8
  %4 = getelementptr inbounds %class.Representation, ptr %3, i32 0, i32 0
  call void @_ZN7PairRepIllEC2Ev(ptr noundef nonnull align 8 dereferenceable(16) %4)
  ret void
}

; Function Attrs: mustprogress nounwind uwtable
define linkonce_odr hidden void @_ZN30CompositeCounterRepresentationI29CompositeElapsedCounterSourceEC2Ev(ptr noundef nonnull align 8 dereferenceable(16) %0) unnamed_addr #1 comdat align 2 {
  %2 = alloca ptr, align 8
  store ptr %0, ptr %2, align 8
  %3 = load ptr, ptr %2, align 8
  call void @_ZN14RepresentationI29CompositeElapsedCounterSourceEC2Ev(ptr noundef nonnull align 8 dereferenceable(16) %3)
  ret void
}

; Function Attrs: mustprogress nounwind uwtable
define internal noundef ptr @_ZL11copy_stringPKc(ptr noundef %0) #1 {
  %2 = alloca ptr, align 8
  store ptr %0, ptr %2, align 8
  %3 = load ptr, ptr %2, align 8
  %4 = icmp ne ptr %3, null
  br i1 %4, label %5, label %8

5:                                                ; preds = %1
  %6 = load ptr, ptr %2, align 8
  %7 = call noundef ptr @_ZN2os6strdupEPKc8MEMFLAGS(ptr noundef %6, i8 noundef zeroext 23)
  br label %9

8:                                                ; preds = %1
  br label %9

9:                                                ; preds = %8, %5
  %10 = phi ptr [ %7, %5 ], [ null, %8 ]
  ret ptr %10
}

; Function Attrs: mustprogress nounwind uwtable
define linkonce_odr hidden void @_ZN12TimeIntervalI30CompositeCounterRepresentation29CompositeElapsedCounterSourceEC2Ev(ptr noundef nonnull align 8 dereferenceable(16) %0) unnamed_addr #1 comdat align 2 {
  %2 = alloca ptr, align 8
  store ptr %0, ptr %2, align 8
  %3 = load ptr, ptr %2, align 8
  call void @_ZN30CompositeCounterRepresentationI29CompositeElapsedCounterSourceEC2Ev(ptr noundef nonnull align 8 dereferenceable(16) %3)
  ret void
}

; Function Attrs: mustprogress nounwind uwtable
define linkonce_odr hidden void @_ZN11TimeInstantI30CompositeCounterRepresentation29CompositeElapsedCounterSourceEC2Ev(ptr noundef nonnull align 8 dereferenceable(16) %0) unnamed_addr #1 comdat align 2 {
  %2 = alloca ptr, align 8
  store ptr %0, ptr %2, align 8
  %3 = load ptr, ptr %2, align 8
  call void @_ZN30CompositeCounterRepresentationI29CompositeElapsedCounterSourceEC2Ev(ptr noundef nonnull align 8 dereferenceable(16) %3)
  ret void
}

; Function Attrs: mustprogress nounwind uwtable
define hidden void @_ZN10JvmtiAgentC2EPKcS1_bb(ptr noundef nonnull align 8 dereferenceable(86) %0, ptr noundef %1, ptr noundef %2, i1 noundef zeroext %3, i1 noundef zeroext %4) unnamed_addr #1 align 2 {
  %6 = alloca ptr, align 8
  %7 = alloca ptr, align 8
  %8 = alloca ptr, align 8
  %9 = alloca i8, align 1
  %10 = alloca i8, align 1
  store ptr %0, ptr %6, align 8
  store ptr %1, ptr %7, align 8
  store ptr %2, ptr %8, align 8
  %11 = zext i1 %3 to i8
  store i8 %11, ptr %9, align 1
  %12 = zext i1 %4 to i8
  store i8 %12, ptr %10, align 1
  %13 = load ptr, ptr %6, align 8
  %14 = getelementptr inbounds %class.JvmtiAgent, ptr %13, i32 0, i32 0
  call void @_ZN11TimeInstantI30CompositeCounterRepresentation29CompositeElapsedCounterSourceEC2Ev(ptr noundef nonnull align 8 dereferenceable(16) %14)
  %15 = getelementptr inbounds %class.JvmtiAgent, ptr %13, i32 0, i32 1
  call void @_ZN12TimeIntervalI30CompositeCounterRepresentation29CompositeElapsedCounterSourceEC2Ev(ptr noundef nonnull align 8 dereferenceable(16) %15)
  %16 = getelementptr inbounds %class.JvmtiAgent, ptr %13, i32 0, i32 2
  store ptr null, ptr %16, align 8
  %17 = getelementptr inbounds %class.JvmtiAgent, ptr %13, i32 0, i32 3
  %18 = load ptr, ptr %7, align 8
  %19 = call noundef ptr @_ZL11copy_stringPKc(ptr noundef %18)
  store ptr %19, ptr %17, align 8
  %20 = getelementptr inbounds %class.JvmtiAgent, ptr %13, i32 0, i32 4
  %21 = load ptr, ptr %8, align 8
  %22 = call noundef ptr @_ZL11copy_stringPKc(ptr noundef %21)
  store ptr %22, ptr %20, align 8
  %23 = getelementptr inbounds %class.JvmtiAgent, ptr %13, i32 0, i32 5
  store ptr null, ptr %23, align 8
  %24 = getelementptr inbounds %class.JvmtiAgent, ptr %13, i32 0, i32 6
  store ptr null, ptr %24, align 8
  %25 = getelementptr inbounds %class.JvmtiAgent, ptr %13, i32 0, i32 7
  store ptr null, ptr %25, align 8
  %26 = getelementptr inbounds %class.JvmtiAgent, ptr %13, i32 0, i32 8
  store i8 0, ptr %26, align 8
  %27 = getelementptr inbounds %class.JvmtiAgent, ptr %13, i32 0, i32 9
  %28 = load i8, ptr %9, align 1
  %29 = trunc i8 %28 to i1
  %30 = zext i1 %29 to i8
  store i8 %30, ptr %27, align 1
  %31 = getelementptr inbounds %class.JvmtiAgent, ptr %13, i32 0, i32 10
  store i8 0, ptr %31, align 2
  %32 = getelementptr inbounds %class.JvmtiAgent, ptr %13, i32 0, i32 11
  %33 = load ptr, ptr %7, align 8
  %34 = call i32 @strcmp(ptr noundef %33, ptr noundef @.str) #7
  %35 = icmp eq i32 %34, 0
  %36 = zext i1 %35 to i8
  store i8 %36, ptr %32, align 1
  %37 = getelementptr inbounds %class.JvmtiAgent, ptr %13, i32 0, i32 12
  %38 = load i8, ptr %10, align 1
  %39 = trunc i8 %38 to i1
  %40 = zext i1 %39 to i8
  store i8 %40, ptr %37, align 4
  %41 = getelementptr inbounds %class.JvmtiAgent, ptr %13, i32 0, i32 13
  store i8 0, ptr %41, align 1
  ret void
}