; Function Attrs: mustprogress nounwind uwtable
define hidden void @_ZN10JvmtiAgentC2EPKcS1_bb(ptr nocapture noundef nonnull writeonly align 8 dereferenceable(86) %0, ptr noundef %1, ptr noundef %2, i1 noundef zeroext %3, i1 noundef zeroext %4) unnamed_addr #0 align 2 {
  %6 = getelementptr inbounds i8, ptr %0, i64 40
  %.not.i = icmp eq ptr %1, null
  tail call void @llvm.memset.p0.i64(ptr noundef nonnull align 8 dereferenceable(40) %0, i8 0, i64 40, i1 false)
  br i1 %.not.i, label %_ZL11copy_stringPKc.exit, label %7

7:                                                ; preds = %5
  %8 = tail call noundef ptr @_ZN2os6strdupEPKc8MEMFLAGS(ptr noundef nonnull %1, i8 noundef zeroext 23) #12
  br label %_ZL11copy_stringPKc.exit

_ZL11copy_stringPKc.exit:                         ; preds = %5, %7
  %9 = phi ptr [ %8, %7 ], [ null, %5 ]
  store ptr %9, ptr %6, align 8
  %.not.i5 = icmp eq ptr %2, null
  br i1 %.not.i5, label %_ZL11copy_stringPKc.exit6, label %10

10:                                               ; preds = %_ZL11copy_stringPKc.exit
  %11 = tail call noundef ptr @_ZN2os6strdupEPKc8MEMFLAGS(ptr noundef nonnull %2, i8 noundef zeroext 23) #12
  br label %_ZL11copy_stringPKc.exit6

_ZL11copy_stringPKc.exit6:                        ; preds = %_ZL11copy_stringPKc.exit, %10
  %12 = phi ptr [ %11, %10 ], [ null, %_ZL11copy_stringPKc.exit ]
  %13 = getelementptr inbounds i8, ptr %0, i64 48
  %14 = zext i1 %4 to i8
  %15 = zext i1 %3 to i8
  store ptr %12, ptr %13, align 8
  %16 = getelementptr inbounds i8, ptr %0, i64 56
  %17 = getelementptr inbounds i8, ptr %0, i64 81
  tail call void @llvm.memset.p0.i64(ptr noundef nonnull align 8 dereferenceable(25) %16, i8 0, i64 25, i1 false)
  store i8 %15, ptr %17, align 1
  %18 = getelementptr inbounds i8, ptr %0, i64 82
  store i8 0, ptr %18, align 2
  %19 = getelementptr inbounds i8, ptr %0, i64 83
  %20 = tail call i32 @strcmp(ptr noundef nonnull dereferenceable(1) %1, ptr noundef nonnull dereferenceable(11) @.str) #13
  %21 = icmp eq i32 %20, 0
  %22 = zext i1 %21 to i8
  store i8 %22, ptr %19, align 1
  %23 = getelementptr inbounds i8, ptr %0, i64 84
  store i8 %14, ptr %23, align 4
  %24 = getelementptr inbounds i8, ptr %0, i64 85
  store i8 0, ptr %24, align 1
  ret void
}